target datalayout = "e-m:e-p270:32:32-p271:32:32-p272:64:64-i64:64-i128:128-f80:128-n8:16:32:64-S128"
target triple = "x86_64-pc-linux-gnu"

%struct.rlglData = type { ptr, %struct.rlRenderBatch, %struct.anon, %struct.anon.0 }
%struct.rlRenderBatch = type { i32, i32, ptr, ptr, i32, float }
%struct.anon = type { i32, float, float, float, float, float, i8, i8, i8, i8, i32, ptr, %struct.Matrix, %struct.Matrix, %struct.Matrix, i8, [32 x %struct.Matrix], i32, i32, [4 x i32], i32, i32, i32, ptr, i32, ptr, i8, [2 x %struct.Matrix], [2 x %struct.Matrix], i32, i32, i32, i32, i32, i32, i32, i32, i32, i32, i8, i32, i32 }
%struct.Matrix = type { float, float, float, float, float, float, float, float, float, float, float, float, float, float, float, float }
%struct.anon.0 = type { i8, i8, i8, i8, i8, i8, i8, i8, i8, i8, i8, i8, i8, i8, i8, i8, float, i32 }

@RLGL = internal global %struct.rlglData zeroinitializer, align 8

; Function Attrs: nounwind uwtable
define void @rlSetBlendFactors(i32 noundef %0, i32 noundef %1, i32 noundef %2) #0 {
  %4 = alloca i32, align 4
  %5 = alloca i32, align 4
  %6 = alloca i32, align 4
  store i32 %0, ptr %4, align 4
  store i32 %1, ptr %5, align 4
  store i32 %2, ptr %6, align 4
  %7 = load i32, ptr getelementptr inbounds nuw (%struct.anon, ptr getelementptr inbounds nuw (%struct.rlglData, ptr @RLGL, i32 0, i32 2), i32 0, i32 30), align 8
  %8 = load i32, ptr %4, align 4
  %9 = icmp ne i32 %7, %8
  br i1 %9, label %18, label %10

10:                                               ; preds = %3
  %11 = load i32, ptr getelementptr inbounds nuw (%struct.anon, ptr getelementptr inbounds nuw (%struct.rlglData, ptr @RLGL, i32 0, i32 2), i32 0, i32 31), align 4
  %12 = load i32, ptr %5, align 4
  %13 = icmp ne i32 %11, %12
  br i1 %13, label %18, label %14

14:                                               ; preds = %10
  %15 = load i32, ptr getelementptr inbounds nuw (%struct.anon, ptr getelementptr inbounds nuw (%struct.rlglData, ptr @RLGL, i32 0, i32 2), i32 0, i32 32), align 8
  %16 = load i32, ptr %6, align 4
  %17 = icmp ne i32 %15, %16
  br i1 %17, label %18, label %22

18:                                               ; preds = %14, %10, %3
  %19 = load i32, ptr %4, align 4
  store i32 %19, ptr getelementptr inbounds nuw (%struct.anon, ptr getelementptr inbounds nuw (%struct.rlglData, ptr @RLGL, i32 0, i32 2), i32 0, i32 30), align 8
  %20 = load i32, ptr %5, align 4
  store i32 %20, ptr getelementptr inbounds nuw (%struct.anon, ptr getelementptr inbounds nuw (%struct.rlglData, ptr @RLGL, i32 0, i32 2), i32 0, i32 31), align 4
  %21 = load i32, ptr %6, align 4
  store i32 %21, ptr getelementptr inbounds nuw (%struct.anon, ptr getelementptr inbounds nuw (%struct.rlglData, ptr @RLGL, i32 0, i32 2), i32 0, i32 32), align 8
  store i8 1, ptr getelementptr inbounds nuw (%struct.anon, ptr getelementptr inbounds nuw (%struct.rlglData, ptr @RLGL, i32 0, i32 2), i32 0, i32 39), align 4
  br label %22

22:                                               ; preds = %18, %14
  ret void
}