; Function Attrs: mustprogress nofree norecurse nosync nounwind willreturn memory(readwrite, argmem: none, inaccessiblemem: none) uwtable
define void @rlSetBlendFactors(i32 noundef %0, i32 noundef %1, i32 noundef %2) local_unnamed_addr #12 {
  %4 = load i32, ptr getelementptr inbounds nuw (i8, ptr @RLGL, i64 2648), align 8
  %.not = icmp eq i32 %4, %0
  %5 = load i32, ptr getelementptr inbounds nuw (i8, ptr @RLGL, i64 2652), align 4
  %.not6 = icmp eq i32 %5, %1
  %or.cond = select i1 %.not, i1 %.not6, i1 false
  %6 = load i32, ptr getelementptr inbounds nuw (i8, ptr @RLGL, i64 2656), align 8
  %.not7 = icmp eq i32 %6, %2
  %or.cond8 = select i1 %or.cond, i1 %.not7, i1 false
  br i1 %or.cond8, label %8, label %7

7:                                                ; preds = %3
  store i32 %0, ptr getelementptr inbounds nuw (i8, ptr @RLGL, i64 2648), align 8
  store i32 %1, ptr getelementptr inbounds nuw (i8, ptr @RLGL, i64 2652), align 4
  store i32 %2, ptr getelementptr inbounds nuw (i8, ptr @RLGL, i64 2656), align 8
  store i8 1, ptr getelementptr inbounds nuw (i8, ptr @RLGL, i64 2684), align 4
  br label %8

8:                                                ; preds = %3, %7
  ret void
}